target datalayout = "e-m:e-p270:32:32-p271:32:32-p272:64:64-i64:64-i128:128-f80:128-n8:16:32:64-S128"
target triple = "x86_64-pc-linux-gnu"

%struct.ps_files = type { ptr, ptr, i64, i64, i32, i32 }
%struct.stat = type { i64, i64, i64, i32, i32, i32, i32, i64, i64, i64, i64, %struct.timespec, %struct.timespec, %struct.timespec, [3 x i64] }
%struct.timespec = type { i64, i64 }
%struct._zend_string = type { %struct._zend_refcounted_h, i64, i64, [1 x i8] }
%struct._zend_refcounted_h = type { i32, %union.anon }
%union.anon = type { i32 }
%struct.dirent = type { i64, i64, i16, i8, [256 x i8] }

@.str.12 = private unnamed_addr constant [6 x i8] c"sess_\00", align 1
@.str.13 = private unnamed_addr constant [50 x i8] c"ps_files_cleanup_dir: opendir(%s) failed: %s (%d)\00", align 1
@.str.14 = private unnamed_addr constant [46 x i8] c"ps_files_cleanup_dir: dirname(%s) is too long\00", align 1

; Function Attrs: nounwind uwtable
define internal i32 @ps_files_cleanup_dir(ptr noundef %0, i64 noundef %1) #0 {
  %3 = alloca i32, align 4
  %4 = alloca ptr, align 8
  %5 = alloca i64, align 8
  %6 = alloca ptr, align 8
  %7 = alloca ptr, align 8
  %8 = alloca %struct.stat, align 8
  %9 = alloca [4096 x i8], align 16
  %10 = alloca i64, align 8
  %11 = alloca i32, align 4
  %12 = alloca i32, align 4
  %13 = alloca i64, align 8
  store ptr %0, ptr %4, align 8, !tbaa !22
  store i64 %1, ptr %5, align 8, !tbaa !12
  call void @llvm.lifetime.start.p0(i64 8, ptr %6) #13
  call void @llvm.lifetime.start.p0(i64 8, ptr %7) #13
  call void @llvm.lifetime.start.p0(i64 144, ptr %8) #13
  call void @llvm.memset.p0.i64(ptr align 8 %8, i8 0, i64 144, i1 false)
  call void @llvm.lifetime.start.p0(i64 4096, ptr %9) #13
  call void @llvm.lifetime.start.p0(i64 8, ptr %10) #13
  call void @llvm.lifetime.start.p0(i64 4, ptr %11) #13
  store i32 0, ptr %11, align 4, !tbaa !10
  %14 = load ptr, ptr %4, align 8, !tbaa !22
  %15 = getelementptr inbounds nuw %struct._zend_string, ptr %14, i32 0, i32 3
  %16 = getelementptr inbounds [1 x i8], ptr %15, i64 0, i64 0
  %17 = call ptr @opendir(ptr noundef %16)
  store ptr %17, ptr %6, align 8, !tbaa !40
  %18 = load ptr, ptr %6, align 8, !tbaa !40
  %19 = icmp ne ptr %18, null
  br i1 %19, label %29, label %20

20:                                               ; preds = %2
  %21 = load ptr, ptr %4, align 8, !tbaa !22
  %22 = getelementptr inbounds nuw %struct._zend_string, ptr %21, i32 0, i32 3
  %23 = getelementptr inbounds [1 x i8], ptr %22, i64 0, i64 0
  %24 = call ptr @__errno_location() #15
  %25 = load i32, ptr %24, align 4, !tbaa !10
  %26 = call ptr @strerror(i32 noundef %25) #13
  %27 = call ptr @__errno_location() #15
  %28 = load i32, ptr %27, align 4, !tbaa !10
  call void (ptr, i32, ptr, ...) @php_error_docref(ptr noundef null, i32 noundef 8, ptr noundef @.str.13, ptr noundef %23, ptr noundef %26, i32 noundef %28)
  store i32 -1, ptr %3, align 4
  store i32 1, ptr %12, align 4
  br label %116

29:                                               ; preds = %2
  %30 = call i64 @time(ptr noundef %10) #13
  %31 = load ptr, ptr %4, align 8, !tbaa !22
  %32 = getelementptr inbounds nuw %struct._zend_string, ptr %31, i32 0, i32 2
  %33 = load i64, ptr %32, align 8, !tbaa !29
  %34 = icmp uge i64 %33, 4096
  br i1 %34, label %35, label %41

35:                                               ; preds = %29
  %36 = load ptr, ptr %4, align 8, !tbaa !22
  %37 = getelementptr inbounds nuw %struct._zend_string, ptr %36, i32 0, i32 3
  %38 = getelementptr inbounds [1 x i8], ptr %37, i64 0, i64 0
  call void (ptr, i32, ptr, ...) @php_error_docref(ptr noundef null, i32 noundef 8, ptr noundef @.str.14, ptr noundef %38)
  %39 = load ptr, ptr %6, align 8, !tbaa !40
  %40 = call i32 @closedir(ptr noundef %39)
  store i32 -1, ptr %3, align 4
  store i32 1, ptr %12, align 4
  br label %116

41:                                               ; preds = %29
  %42 = getelementptr inbounds [4096 x i8], ptr %9, i64 0, i64 0
  %43 = load ptr, ptr %4, align 8, !tbaa !22
  %44 = getelementptr inbounds nuw %struct._zend_string, ptr %43, i32 0, i32 3
  %45 = getelementptr inbounds [1 x i8], ptr %44, i64 0, i64 0
  %46 = load ptr, ptr %4, align 8, !tbaa !22
  %47 = getelementptr inbounds nuw %struct._zend_string, ptr %46, i32 0, i32 2
  %48 = load i64, ptr %47, align 8, !tbaa !29
  call void @llvm.memcpy.p0.p0.i64(ptr align 16 %42, ptr align 8 %45, i64 %48, i1 false)
  %49 = load ptr, ptr %4, align 8, !tbaa !22
  %50 = getelementptr inbounds nuw %struct._zend_string, ptr %49, i32 0, i32 2
  %51 = load i64, ptr %50, align 8, !tbaa !29
  %52 = getelementptr inbounds nuw [4096 x i8], ptr %9, i64 0, i64 %51
  store i8 47, ptr %52, align 1, !tbaa !14
  br label %53

53:                                               ; preds = %111, %41
  %54 = load ptr, ptr %6, align 8, !tbaa !40
  %55 = call ptr @readdir(ptr noundef %54)
  store ptr %55, ptr %7, align 8, !tbaa !42
  %56 = icmp ne ptr %55, null
  br i1 %56, label %57, label %112

57:                                               ; preds = %53
  %58 = load ptr, ptr %7, align 8, !tbaa !42
  %59 = getelementptr inbounds nuw %struct.dirent, ptr %58, i32 0, i32 4
  %60 = getelementptr inbounds [256 x i8], ptr %59, i64 0, i64 0
  %61 = call i32 @strncmp(ptr noundef %60, ptr noundef @.str.12, i64 noundef 5) #14
  %62 = icmp ne i32 %61, 0
  br i1 %62, label %111, label %63

63:                                               ; preds = %57
  call void @llvm.lifetime.start.p0(i64 8, ptr %13) #13
  %64 = load ptr, ptr %7, align 8, !tbaa !42
  %65 = getelementptr inbounds nuw %struct.dirent, ptr %64, i32 0, i32 4
  %66 = getelementptr inbounds [256 x i8], ptr %65, i64 0, i64 0
  %67 = call i64 @strlen(ptr noundef %66) #14
  store i64 %67, ptr %13, align 8, !tbaa !12
  %68 = load i64, ptr %13, align 8, !tbaa !12
  %69 = load ptr, ptr %4, align 8, !tbaa !22
  %70 = getelementptr inbounds nuw %struct._zend_string, ptr %69, i32 0, i32 2
  %71 = load i64, ptr %70, align 8, !tbaa !29
  %72 = add i64 %68, %71
  %73 = add i64 %72, 2
  %74 = icmp ult i64 %73, 4096
  br i1 %74, label %75, label %110

75:                                               ; preds = %63
  %76 = getelementptr inbounds [4096 x i8], ptr %9, i64 0, i64 0
  %77 = load ptr, ptr %4, align 8, !tbaa !22
  %78 = getelementptr inbounds nuw %struct._zend_string, ptr %77, i32 0, i32 2
  %79 = load i64, ptr %78, align 8, !tbaa !29
  %80 = getelementptr inbounds nuw i8, ptr %76, i64 %79
  %81 = getelementptr inbounds i8, ptr %80, i64 1
  %82 = load ptr, ptr %7, align 8, !tbaa !42
  %83 = getelementptr inbounds nuw %struct.dirent, ptr %82, i32 0, i32 4
  %84 = getelementptr inbounds [256 x i8], ptr %83, i64 0, i64 0
  %85 = load i64, ptr %13, align 8, !tbaa !12
  call void @llvm.memcpy.p0.p0.i64(ptr align 1 %81, ptr align 1 %84, i64 %85, i1 false)
  %86 = load ptr, ptr %4, align 8, !tbaa !22
  %87 = getelementptr inbounds nuw %struct._zend_string, ptr %86, i32 0, i32 2
  %88 = load i64, ptr %87, align 8, !tbaa !29
  %89 = load i64, ptr %13, align 8, !tbaa !12
  %90 = add i64 %88, %89
  %91 = add i64 %90, 1
  %92 = getelementptr inbounds nuw [4096 x i8], ptr %9, i64 0, i64 %91
  store i8 0, ptr %92, align 1, !tbaa !14
  %93 = getelementptr inbounds [4096 x i8], ptr %9, i64 0, i64 0
  %94 = call i32 @stat(ptr noundef %93, ptr noundef %8) #13
  %95 = icmp eq i32 %94, 0
  br i1 %95, label %96, label %109

96:                                               ; preds = %75
  %97 = load i64, ptr %10, align 8, !tbaa !12
  %98 = getelementptr inbounds nuw %struct.stat, ptr %8, i32 0, i32 12
  %99 = getelementptr inbounds nuw %struct.timespec, ptr %98, i32 0, i32 0
  %100 = load i64, ptr %99, align 8, !tbaa !44
  %101 = sub nsw i64 %97, %100
  %102 = load i64, ptr %5, align 8, !tbaa !12
  %103 = icmp sgt i64 %101, %102
  br i1 %103, label %104, label %109

104:                                              ; preds = %96
  %105 = getelementptr inbounds [4096 x i8], ptr %9, i64 0, i64 0
  %106 = call i32 @unlink(ptr noundef %105) #13
  %107 = load i32, ptr %11, align 4, !tbaa !10
  %108 = add nsw i32 %107, 1
  store i32 %108, ptr %11, align 4, !tbaa !10
  br label %109

109:                                              ; preds = %104, %96, %75
  br label %110

110:                                              ; preds = %109, %63
  call void @llvm.lifetime.end.p0(i64 8, ptr %13) #13
  br label %111

111:                                              ; preds = %110, %57
  br label %53

112:                                              ; preds = %53
  %113 = load ptr, ptr %6, align 8, !tbaa !40
  %114 = call i32 @closedir(ptr noundef %113)
  %115 = load i32, ptr %11, align 4, !tbaa !10
  store i32 %115, ptr %3, align 4
  store i32 1, ptr %12, align 4
  br label %116

116:                                              ; preds = %112, %35, %20
  call void @llvm.lifetime.end.p0(i64 4, ptr %11) #13
  call void @llvm.lifetime.end.p0(i64 8, ptr %10) #13
  call void @llvm.lifetime.end.p0(i64 4096, ptr %9) #13
  call void @llvm.lifetime.end.p0(i64 144, ptr %8) #13
  call void @llvm.lifetime.end.p0(i64 8, ptr %7) #13
  call void @llvm.lifetime.end.p0(i64 8, ptr %6) #13
  %117 = load i32, ptr %3, align 4
  ret i32 %117
}

; Function Attrs: nounwind uwtable
define hidden i64 @ps_gc_files(ptr noundef %0, i64 noundef %1, ptr noundef %2) #0 {
  %4 = alloca ptr, align 8
  %5 = alloca i64, align 8
  %6 = alloca ptr, align 8
  %7 = alloca ptr, align 8
  store ptr %0, ptr %4, align 8, !tbaa !4
  store i64 %1, ptr %5, align 8, !tbaa !12
  store ptr %2, ptr %6, align 8, !tbaa !32
  call void @llvm.lifetime.start.p0(i64 8, ptr %7) #13
  %8 = load ptr, ptr %4, align 8, !tbaa !4
  %9 = load ptr, ptr %8, align 8, !tbaa !4
  store ptr %9, ptr %7, align 8, !tbaa !4
  %10 = load ptr, ptr %7, align 8, !tbaa !4
  %11 = getelementptr inbounds nuw %struct.ps_files, ptr %10, i32 0, i32 2
  %12 = load i64, ptr %11, align 8, !tbaa !18
  %13 = icmp eq i64 %12, 0
  br i1 %13, label %14, label %22

14:                                               ; preds = %3
  %15 = load ptr, ptr %7, align 8, !tbaa !4
  %16 = getelementptr inbounds nuw %struct.ps_files, ptr %15, i32 0, i32 1
  %17 = load ptr, ptr %16, align 8, !tbaa !20
  %18 = load i64, ptr %5, align 8, !tbaa !12
  %19 = call i32 @ps_files_cleanup_dir(ptr noundef %17, i64 noundef %18)
  %20 = sext i32 %19 to i64
  %21 = load ptr, ptr %6, align 8, !tbaa !32
  store i64 %20, ptr %21, align 8, !tbaa !12
  br label %24

22:                                               ; preds = %3
  %23 = load ptr, ptr %6, align 8, !tbaa !32
  store i64 -1, ptr %23, align 8, !tbaa !12
  br label %24

24:                                               ; preds = %22, %14
  %25 = load ptr, ptr %6, align 8, !tbaa !32
  %26 = load i64, ptr %25, align 8, !tbaa !12
  call void @llvm.lifetime.end.p0(i64 8, ptr %7) #13
  ret i64 %26
}