; Function Attrs: nounwind uwtable
define hidden range(i64 -2147483648, 2147483648) i64 @ps_gc_files(ptr noundef readonly captures(none) %0, i64 noundef %1, ptr noundef writeonly captures(none) %2) #0 {
  %4 = alloca %struct.stat, align 8
  %5 = alloca [4096 x i8], align 16
  %6 = alloca i64, align 8
  %7 = load ptr, ptr %0, align 8, !tbaa !24
  %8 = getelementptr inbounds nuw i8, ptr %7, i64 16
  %9 = load i64, ptr %8, align 8, !tbaa !16
  %10 = icmp eq i64 %9, 0
  br i1 %10, label %11, label %59

11:                                               ; preds = %3
  %12 = getelementptr inbounds nuw i8, ptr %7, i64 8
  %13 = load ptr, ptr %12, align 8, !tbaa !23
  call void @llvm.lifetime.start.p0(i64 144, ptr nonnull %4) #15
  call void @llvm.memset.p0.i64(ptr noundef nonnull align 8 dereferenceable(144) %4, i8 0, i64 144, i1 false)
  call void @llvm.lifetime.start.p0(i64 4096, ptr nonnull %5) #15
  call void @llvm.lifetime.start.p0(i64 8, ptr nonnull %6) #15
  %14 = getelementptr inbounds nuw i8, ptr %13, i64 24
  %15 = tail call ptr @opendir(ptr noundef nonnull %14)
  %.not.i = icmp eq ptr %15, null
  br i1 %.not.i, label %16, label %21

16:                                               ; preds = %11
  %17 = tail call ptr @__errno_location() #17
  %18 = load i32, ptr %17, align 4, !tbaa !10
  %19 = tail call ptr @strerror(i32 noundef %18) #15
  %20 = load i32, ptr %17, align 4, !tbaa !10
  tail call void (ptr, i32, ptr, ...) @php_error_docref(ptr noundef null, i32 noundef 8, ptr noundef nonnull @.str.13, ptr noundef nonnull %14, ptr noundef %19, i32 noundef %20) #15
  br label %ps_files_cleanup_dir.exit

21:                                               ; preds = %11
  %22 = call i64 @time(ptr noundef nonnull %6) #15
  %23 = getelementptr inbounds nuw i8, ptr %13, i64 16
  %24 = load i64, ptr %23, align 8, !tbaa !22
  %25 = icmp ugt i64 %24, 4095
  br i1 %25, label %26, label %28

26:                                               ; preds = %21
  call void (ptr, i32, ptr, ...) @php_error_docref(ptr noundef null, i32 noundef 8, ptr noundef nonnull @.str.14, ptr noundef nonnull %14) #15
  %27 = call i32 @closedir(ptr noundef nonnull %15)
  br label %ps_files_cleanup_dir.exit

28:                                               ; preds = %21
  call void @llvm.memcpy.p0.p0.i64(ptr nonnull align 16 %5, ptr nonnull align 8 %14, i64 %24, i1 false)
  %29 = getelementptr inbounds nuw [4096 x i8], ptr %5, i64 0, i64 %24
  store i8 47, ptr %29, align 1, !tbaa !4
  %invariant.gep.i = getelementptr inbounds nuw i8, ptr %5, i64 1
  %30 = call ptr @readdir(ptr noundef nonnull %15) #15
  %.not2729.i = icmp eq ptr %30, null
  br i1 %.not2729.i, label %._crit_edge.i, label %.lr.ph.i

.lr.ph.i:                                         ; preds = %28
  %31 = getelementptr inbounds nuw i8, ptr %4, i64 88
  br label %32

32:                                               ; preds = %55, %.lr.ph.i
  %33 = phi ptr [ %30, %.lr.ph.i ], [ %56, %55 ]
  %.02330.i = phi i32 [ 0, %.lr.ph.i ], [ %.1.i, %55 ]
  %34 = getelementptr inbounds nuw i8, ptr %33, i64 19
  %35 = call i32 @strncmp(ptr noundef nonnull dereferenceable(1) %34, ptr noundef nonnull dereferenceable(6) @.str.12, i64 noundef 5) #16
  %.not28.i = icmp eq i32 %35, 0
  br i1 %.not28.i, label %36, label %55

36:                                               ; preds = %32
  %37 = call i64 @strlen(ptr noundef nonnull dereferenceable(1) %34) #16
  %38 = load i64, ptr %23, align 8, !tbaa !22
  %39 = add i64 %38, %37
  %40 = add i64 %39, 2
  %41 = icmp ult i64 %40, 4096
  br i1 %41, label %42, label %55

42:                                               ; preds = %36
  %gep.i = getelementptr i8, ptr %invariant.gep.i, i64 %38
  call void @llvm.memcpy.p0.p0.i64(ptr nonnull align 1 %gep.i, ptr nonnull align 1 %34, i64 %37, i1 false)
  %43 = add nsw i64 %39, 1
  %44 = getelementptr inbounds nuw [4096 x i8], ptr %5, i64 0, i64 %43
  store i8 0, ptr %44, align 1, !tbaa !4
  %45 = call i32 @stat(ptr noundef nonnull %5, ptr noundef nonnull %4) #15
  %46 = icmp eq i32 %45, 0
  br i1 %46, label %47, label %55

47:                                               ; preds = %42
  %48 = load i64, ptr %6, align 8, !tbaa !31
  %49 = load i64, ptr %31, align 8, !tbaa !32
  %50 = sub nsw i64 %48, %49
  %51 = icmp sgt i64 %50, %1
  br i1 %51, label %52, label %55

52:                                               ; preds = %47
  %53 = call i32 @unlink(ptr noundef nonnull %5) #15
  %54 = add nsw i32 %.02330.i, 1
  br label %55

55:                                               ; preds = %52, %47, %42, %36, %32
  %.1.i = phi i32 [ %.02330.i, %32 ], [ %54, %52 ], [ %.02330.i, %47 ], [ %.02330.i, %42 ], [ %.02330.i, %36 ]
  %56 = call ptr @readdir(ptr noundef nonnull %15) #15
  %.not27.i = icmp eq ptr %56, null
  br i1 %.not27.i, label %._crit_edge.i.loopexit, label %32

._crit_edge.i.loopexit:                           ; preds = %55
  %57 = sext i32 %.1.i to i64
  br label %._crit_edge.i

._crit_edge.i:                                    ; preds = %._crit_edge.i.loopexit, %28
  %.023.lcssa.i = phi i64 [ 0, %28 ], [ %57, %._crit_edge.i.loopexit ]
  %58 = call i32 @closedir(ptr noundef nonnull %15)
  br label %ps_files_cleanup_dir.exit

ps_files_cleanup_dir.exit:                        ; preds = %16, %26, %._crit_edge.i
  %.0.i = phi i64 [ -1, %26 ], [ %.023.lcssa.i, %._crit_edge.i ], [ -1, %16 ]
  call void @llvm.lifetime.end.p0(i64 8, ptr nonnull %6) #15
  call void @llvm.lifetime.end.p0(i64 4096, ptr nonnull %5) #15
  call void @llvm.lifetime.end.p0(i64 144, ptr nonnull %4) #15
  br label %59

59:                                               ; preds = %3, %ps_files_cleanup_dir.exit
  %storemerge = phi i64 [ %.0.i, %ps_files_cleanup_dir.exit ], [ -1, %3 ]
  store i64 %storemerge, ptr %2, align 8, !tbaa !31
  ret i64 %storemerge
}